target datalayout = "e-m:e-p270:32:32-p271:32:32-p272:64:64-i64:64-i128:128-f80:128-n8:16:32:64-S128"
target triple = "x86_64-pc-linux-gnu"

%struct.IDAMemRec = type { ptr, double, ptr, ptr, i32, double, double, ptr, i32, i32, ptr, ptr, i32, i32, i32, ptr, ptr, i32, i32, double, double, ptr, i32, i32, i32, i32, ptr, ptr, i32, ptr, ptr, ptr, i32, double, i32, i32, double, ptr, ptr, ptr, i32, ptr, ptr, i32, i32, i32, double, ptr, ptr, ptr, [6 x ptr], [6 x double], [6 x double], [6 x double], [6 x double], [6 x double], ptr, ptr, ptr, ptr, ptr, ptr, ptr, ptr, ptr, ptr, ptr, ptr, ptr, ptr, ptr, ptr, ptr, [6 x ptr], ptr, ptr, ptr, ptr, [6 x ptr], ptr, ptr, ptr, ptr, ptr, ptr, ptr, ptr, ptr, ptr, ptr, ptr, ptr, ptr, ptr, ptr, [6 x ptr], ptr, ptr, ptr, ptr, ptr, double, ptr, ptr, i32, i32, i32, i32, i32, i32, i32, i32, double, double, double, i32, double, i32, i32, i32, i32, i32, double, double, double, double, double, double, double, double, double, double, double, double, double, double, double, double, double, i32, i32, i32, i32, i64, double, double, double, double, double, double, double, double, double, i64, i64, i64, i64, i64, i64, i64, i64, i64, i64, i64, i64, i64, i64, i64, i64, i64, i64, i64, i64, i64, i64, i64, i64, i64, i64, double, i32, i32, i32, i32, i32, i32, i32, i32, i32, i32, i32, i32, i32, ptr, i32, ptr, i32, ptr, i32, ptr, ptr, ptr, ptr, ptr, ptr, i32, i32, ptr, ptr, ptr, ptr, ptr, ptr, ptr, double, i32, i32, ptr, i32, ptr, ptr, double, double, double, ptr, ptr, ptr, double, double, i32, i32, i64, ptr, i32, ptr, [5 x double], ptr, ptr, i32, ptr, i32 }

@.str = private unnamed_addr constant [114 x i8] c"generated/home/dtcxzyw/WorkSpace/Projects/compilers/llvm-opt-benchmark/bench/sundials/sundials/src/idas/idas_io.c\00", align 1
@.str.1 = private unnamed_addr constant [24 x i8] c"ida_mem = NULL illegal.\00", align 1
@__func__.IDASetId = private unnamed_addr constant [9 x i8] c"IDASetId\00", align 1

; Function Attrs: nounwind uwtable
define i32 @IDASetId(ptr noundef %0, ptr noundef %1) #0 {
  %3 = alloca i32, align 4
  %4 = alloca ptr, align 8
  %5 = alloca ptr, align 8
  %6 = alloca ptr, align 8
  store ptr %0, ptr %4, align 8
  store ptr %1, ptr %5, align 8
  %7 = load ptr, ptr %4, align 8
  %8 = icmp eq ptr %7, null
  br i1 %8, label %9, label %10

9:                                                ; preds = %2
  call void (ptr, i32, i32, ptr, ptr, ptr, ...) @IDAProcessError(ptr noundef null, i32 noundef -20, i32 noundef 543, ptr noundef @__func__.IDASetId, ptr noundef @.str, ptr noundef @.str.1)
  store i32 -20, ptr %3, align 4
  br label %71

10:                                               ; preds = %2
  %11 = load ptr, ptr %4, align 8
  store ptr %11, ptr %6, align 8
  %12 = load ptr, ptr %5, align 8
  %13 = icmp eq ptr %12, null
  br i1 %13, label %14, label %40

14:                                               ; preds = %10
  %15 = load ptr, ptr %6, align 8
  %16 = getelementptr inbounds %struct.IDAMemRec, ptr %15, i32 0, i32 183
  %17 = load i32, ptr %16, align 4
  %18 = icmp ne i32 %17, 0
  br i1 %18, label %19, label %37

19:                                               ; preds = %14
  %20 = load ptr, ptr %6, align 8
  %21 = getelementptr inbounds %struct.IDAMemRec, ptr %20, i32 0, i32 62
  %22 = load ptr, ptr %21, align 8
  call void @N_VDestroy(ptr noundef %22)
  %23 = load ptr, ptr %6, align 8
  %24 = getelementptr inbounds %struct.IDAMemRec, ptr %23, i32 0, i32 173
  %25 = load i64, ptr %24, align 8
  %26 = load ptr, ptr %6, align 8
  %27 = getelementptr inbounds %struct.IDAMemRec, ptr %26, i32 0, i32 177
  %28 = load i64, ptr %27, align 8
  %29 = sub nsw i64 %28, %25
  store i64 %29, ptr %27, align 8
  %30 = load ptr, ptr %6, align 8
  %31 = getelementptr inbounds %struct.IDAMemRec, ptr %30, i32 0, i32 174
  %32 = load i64, ptr %31, align 8
  %33 = load ptr, ptr %6, align 8
  %34 = getelementptr inbounds %struct.IDAMemRec, ptr %33, i32 0, i32 178
  %35 = load i64, ptr %34, align 8
  %36 = sub nsw i64 %35, %32
  store i64 %36, ptr %34, align 8
  br label %37

37:                                               ; preds = %19, %14
  %38 = load ptr, ptr %6, align 8
  %39 = getelementptr inbounds %struct.IDAMemRec, ptr %38, i32 0, i32 183
  store i32 0, ptr %39, align 4
  store i32 0, ptr %3, align 4
  br label %71

40:                                               ; preds = %10
  %41 = load ptr, ptr %6, align 8
  %42 = getelementptr inbounds %struct.IDAMemRec, ptr %41, i32 0, i32 183
  %43 = load i32, ptr %42, align 4
  %44 = icmp ne i32 %43, 0
  br i1 %44, label %66, label %45

45:                                               ; preds = %40
  %46 = load ptr, ptr %5, align 8
  %47 = call ptr @N_VClone(ptr noundef %46)
  %48 = load ptr, ptr %6, align 8
  %49 = getelementptr inbounds %struct.IDAMemRec, ptr %48, i32 0, i32 62
  store ptr %47, ptr %49, align 8
  %50 = load ptr, ptr %6, align 8
  %51 = getelementptr inbounds %struct.IDAMemRec, ptr %50, i32 0, i32 173
  %52 = load i64, ptr %51, align 8
  %53 = load ptr, ptr %6, align 8
  %54 = getelementptr inbounds %struct.IDAMemRec, ptr %53, i32 0, i32 177
  %55 = load i64, ptr %54, align 8
  %56 = add nsw i64 %55, %52
  store i64 %56, ptr %54, align 8
  %57 = load ptr, ptr %6, align 8
  %58 = getelementptr inbounds %struct.IDAMemRec, ptr %57, i32 0, i32 174
  %59 = load i64, ptr %58, align 8
  %60 = load ptr, ptr %6, align 8
  %61 = getelementptr inbounds %struct.IDAMemRec, ptr %60, i32 0, i32 178
  %62 = load i64, ptr %61, align 8
  %63 = add nsw i64 %62, %59
  store i64 %63, ptr %61, align 8
  %64 = load ptr, ptr %6, align 8
  %65 = getelementptr inbounds %struct.IDAMemRec, ptr %64, i32 0, i32 183
  store i32 1, ptr %65, align 4
  br label %66

66:                                               ; preds = %45, %40
  %67 = load ptr, ptr %5, align 8
  %68 = load ptr, ptr %6, align 8
  %69 = getelementptr inbounds %struct.IDAMemRec, ptr %68, i32 0, i32 62
  %70 = load ptr, ptr %69, align 8
  call void @N_VScale(double noundef 1.000000e+00, ptr noundef %67, ptr noundef %70)
  store i32 0, ptr %3, align 4
  br label %71

71:                                               ; preds = %66, %37, %9
  %72 = load i32, ptr %3, align 4
  ret i32 %72
}