; Function Attrs: nounwind uwtable
define range(i32 -20, 1) i32 @IDASetId(ptr noundef %0, ptr noundef %1) local_unnamed_addr #0 {
  %3 = icmp eq ptr %0, null
  br i1 %3, label %4, label %5

4:                                                ; preds = %2
  tail call void (ptr, i32, i32, ptr, ptr, ptr, ...) @IDAProcessError(ptr noundef null, i32 noundef -20, i32 noundef 543, ptr noundef nonnull @__func__.IDASetId, ptr noundef nonnull @.str, ptr noundef nonnull @.str.1) #9
  br label %40

5:                                                ; preds = %2
  %6 = icmp eq ptr %1, null
  %7 = getelementptr inbounds nuw i8, ptr %0, i64 1692
  %8 = load i32, ptr %7, align 4
  %.not22 = icmp eq i32 %8, 0
  br i1 %6, label %9, label %24

9:                                                ; preds = %5
  br i1 %.not22, label %23, label %10

10:                                               ; preds = %9
  %11 = getelementptr inbounds nuw i8, ptr %0, i64 680
  %12 = load ptr, ptr %11, align 8
  tail call void @N_VDestroy(ptr noundef %12) #9
  %13 = getelementptr inbounds nuw i8, ptr %0, i64 1624
  %14 = load i64, ptr %13, align 8
  %15 = getelementptr inbounds nuw i8, ptr %0, i64 1656
  %16 = load i64, ptr %15, align 8
  %17 = sub nsw i64 %16, %14
  store i64 %17, ptr %15, align 8
  %18 = getelementptr inbounds nuw i8, ptr %0, i64 1632
  %19 = load i64, ptr %18, align 8
  %20 = getelementptr inbounds nuw i8, ptr %0, i64 1664
  %21 = load i64, ptr %20, align 8
  %22 = sub nsw i64 %21, %19
  store i64 %22, ptr %20, align 8
  br label %23

23:                                               ; preds = %10, %9
  store i32 0, ptr %7, align 4
  br label %40

24:                                               ; preds = %5
  br i1 %.not22, label %25, label %._crit_edge

._crit_edge:                                      ; preds = %24
  %.phi.trans.insert = getelementptr inbounds nuw i8, ptr %0, i64 680
  %.pre = load ptr, ptr %.phi.trans.insert, align 8
  br label %38

25:                                               ; preds = %24
  %26 = tail call ptr @N_VClone(ptr noundef nonnull %1) #9
  %27 = getelementptr inbounds nuw i8, ptr %0, i64 680
  store ptr %26, ptr %27, align 8
  %28 = getelementptr inbounds nuw i8, ptr %0, i64 1624
  %29 = load i64, ptr %28, align 8
  %30 = getelementptr inbounds nuw i8, ptr %0, i64 1656
  %31 = load i64, ptr %30, align 8
  %32 = add nsw i64 %31, %29
  store i64 %32, ptr %30, align 8
  %33 = getelementptr inbounds nuw i8, ptr %0, i64 1632
  %34 = load i64, ptr %33, align 8
  %35 = getelementptr inbounds nuw i8, ptr %0, i64 1664
  %36 = load i64, ptr %35, align 8
  %37 = add nsw i64 %36, %34
  store i64 %37, ptr %35, align 8
  store i32 1, ptr %7, align 4
  br label %38

38:                                               ; preds = %._crit_edge, %25
  %39 = phi ptr [ %.pre, %._crit_edge ], [ %26, %25 ]
  tail call void @N_VScale(double noundef 1.000000e+00, ptr noundef nonnull %1, ptr noundef %39) #9
  br label %40

40:                                               ; preds = %38, %23, %4
  %.0 = phi i32 [ -20, %4 ], [ 0, %23 ], [ 0, %38 ]
  ret i32 %.0
}